; Function Attrs: nounwind sspstrong uwtable
define internal i64 @tm_from_time(i64 noundef %0, i64 noundef %1) #1 {
  %3 = alloca %struct.vtm, align 8
  call void @llvm.lifetime.start.p0(i64 40, ptr nonnull %3) #21
  %4 = tail call ptr @rb_check_typeddata(i64 noundef %1, ptr noundef nonnull @time_data_type) #21
  %5 = getelementptr inbounds nuw i8, ptr %4, i64 40
  %6 = load i64, ptr %5, align 8
  %7 = and i64 %6, 61572651155456
  %.not.i = icmp eq i64 %7, 26388279066624
  br i1 %.not.i, label %8, label %get_timeval.exit

8:                                                ; preds = %2
  %9 = load i64, ptr @rb_eTypeError, align 8, !tbaa !11
  %10 = tail call i64 @rb_obj_class(i64 noundef %1) #21
  tail call void (i64, ptr, ...) @rb_raise(i64 noundef %9, ptr noundef nonnull @.str.92, i64 noundef %10) #22
  unreachable

get_timeval.exit:                                 ; preds = %2
  %11 = tail call i64 @rb_data_typed_object_zalloc(i64 noundef %0, i64 noundef 48, ptr noundef nonnull @time_data_type) #21
  %12 = inttoptr i64 %11 to ptr
  %13 = getelementptr inbounds nuw i8, ptr %12, i64 24
  %14 = load i64, ptr %13, align 8, !tbaa !20
  %15 = and i64 %14, 2
  %.not.i.i = icmp eq i64 %15, 0
  %16 = getelementptr i8, ptr %12, i64 32
  br i1 %.not.i.i, label %17, label %time_s_alloc.exit

17:                                               ; preds = %get_timeval.exit
  %18 = load ptr, ptr %16, align 8, !tbaa !24
  br label %time_s_alloc.exit

time_s_alloc.exit:                                ; preds = %get_timeval.exit, %17
  %19 = phi ptr [ %18, %17 ], [ %16, %get_timeval.exit ]
  %20 = getelementptr inbounds nuw i8, ptr %19, i64 40
  %21 = load i64, ptr %20, align 8
  %22 = and i64 %21, -131941395333121
  %23 = or disjoint i64 %22, 26388279066624
  store i64 %23, ptr %20, align 8
  store i64 1, ptr %19, align 8, !tbaa !25
  %24 = getelementptr inbounds nuw i8, ptr %19, i64 32
  store i64 4, ptr %24, align 8, !tbaa !29
  %25 = load i64, ptr %13, align 8, !tbaa !20
  %26 = and i64 %25, 2
  %.not.i16 = icmp eq i64 %26, 0
  br i1 %.not.i16, label %27, label %RTYPEDDATA_GET_DATA.exit

27:                                               ; preds = %time_s_alloc.exit
  %28 = load ptr, ptr %16, align 8, !tbaa !24
  br label %RTYPEDDATA_GET_DATA.exit

RTYPEDDATA_GET_DATA.exit:                         ; preds = %time_s_alloc.exit, %27
  %29 = phi ptr [ %28, %27 ], [ %16, %time_s_alloc.exit ]
  %30 = load i64, ptr %4, align 8, !tbaa !25
  store i64 %30, ptr %29, align 8, !tbaa !25
  %31 = call fastcc ptr @gmtimew(i64 noundef %30, ptr noundef %3)
  %.not = icmp eq ptr %31, null
  br i1 %.not, label %32, label %34

32:                                               ; preds = %RTYPEDDATA_GET_DATA.exit
  %33 = load i64, ptr @rb_eArgError, align 8, !tbaa !11
  call void (i64, ptr, ...) @rb_raise(i64 noundef %33, ptr noundef nonnull @.str.102) #22
  unreachable

34:                                               ; preds = %RTYPEDDATA_GET_DATA.exit
  %35 = load i64, ptr %29, align 8, !tbaa !25
  %36 = getelementptr inbounds nuw i8, ptr %3, i64 8
  %37 = load i64, ptr %36, align 8, !tbaa !59
  %38 = call fastcc i64 @wsub(i64 noundef %35, i64 noundef %37)
  store i64 %38, ptr %29, align 8, !tbaa !25
  store i64 1, ptr %36, align 8, !tbaa !59
  %39 = getelementptr inbounds nuw i8, ptr %3, i64 24
  store i64 4, ptr %39, align 8, !tbaa !36
  %40 = getelementptr inbounds nuw i8, ptr %29, i64 8
  call void @llvm.memcpy.p0.p0.i64(ptr noundef nonnull align 8 dereferenceable(40) %40, ptr noundef nonnull align 8 dereferenceable(40) %3, i64 40, i1 false)
  %41 = load i64, ptr %40, align 8, !tbaa !37
  %42 = icmp eq i64 %41, 0
  %43 = and i64 %41, 7
  %44 = icmp ne i64 %43, 0
  %45 = or i1 %42, %44
  br i1 %45, label %rb_obj_written.exit.i, label %46

46:                                               ; preds = %34
  call void @rb_gc_writebarrier(i64 noundef %11, i64 noundef %41) #21
  br label %rb_obj_written.exit.i

rb_obj_written.exit.i:                            ; preds = %46, %34
  %47 = getelementptr inbounds nuw i8, ptr %29, i64 16
  %48 = load i64, ptr %47, align 8, !tbaa !38
  %49 = icmp eq i64 %48, 0
  %50 = and i64 %48, 7
  %51 = icmp ne i64 %50, 0
  %52 = or i1 %49, %51
  br i1 %52, label %rb_obj_written.exit8.i, label %53

53:                                               ; preds = %rb_obj_written.exit.i
  call void @rb_gc_writebarrier(i64 noundef %11, i64 noundef %48) #21
  br label %rb_obj_written.exit8.i

rb_obj_written.exit8.i:                           ; preds = %53, %rb_obj_written.exit.i
  %54 = getelementptr inbounds nuw i8, ptr %29, i64 24
  %55 = load i64, ptr %54, align 8, !tbaa !39
  %56 = icmp eq i64 %55, 0
  %57 = and i64 %55, 7
  %58 = icmp ne i64 %57, 0
  %59 = or i1 %56, %58
  br i1 %59, label %rb_obj_written.exit9.i, label %60

60:                                               ; preds = %rb_obj_written.exit8.i
  call void @rb_gc_writebarrier(i64 noundef %11, i64 noundef %55) #21
  br label %rb_obj_written.exit9.i

rb_obj_written.exit9.i:                           ; preds = %60, %rb_obj_written.exit8.i
  %61 = getelementptr inbounds nuw i8, ptr %29, i64 32
  %62 = load i64, ptr %61, align 8, !tbaa !29
  %63 = icmp eq i64 %62, 0
  %64 = and i64 %62, 7
  %65 = icmp ne i64 %64, 0
  %66 = or i1 %63, %65
  br i1 %66, label %time_set_vtm.exit, label %67

67:                                               ; preds = %rb_obj_written.exit9.i
  call void @rb_gc_writebarrier(i64 noundef %11, i64 noundef %62) #21
  br label %time_set_vtm.exit

time_set_vtm.exit:                                ; preds = %rb_obj_written.exit9.i, %67
  %68 = getelementptr inbounds nuw i8, ptr %29, i64 40
  %69 = load i64, ptr %68, align 8
  %70 = and i64 %69, -131941395333121
  %71 = or disjoint i64 %70, 79164837199872
  store i64 %71, ptr %68, align 8
  call void @llvm.lifetime.end.p0(i64 40, ptr nonnull %3) #21
  ret i64 %11
}